; Function Attrs: mustprogress uwtable
define dso_local noundef zeroext i1 @_ZN7Cleaner10FileExistsERKNSt7__cxx1112basic_stringIcSt11char_traitsIcESaIcEEE(ptr noundef nonnull readonly align 8 captures(none) dereferenceable(156) %0, ptr noundef nonnull align 8 dereferenceable(32) %1) local_unnamed_addr #1 align 2 personality ptr @__gxx_personality_v0 {
  %3 = alloca %"class.std::__cxx11::basic_string", align 8
  call void @llvm.lifetime.start.p0(i64 32, ptr nonnull %3) #22
  %4 = getelementptr inbounds nuw i8, ptr %3, i64 16
  store ptr %4, ptr %3, align 8, !tbaa !45
  %5 = getelementptr inbounds nuw i8, ptr %3, i64 8
  store i64 0, ptr %5, align 8, !tbaa !48
  store i8 0, ptr %4, align 8, !tbaa !50
  %6 = getelementptr inbounds nuw i8, ptr %0, i64 144
  %7 = load ptr, ptr %6, align 8, !tbaa !41
  %8 = load ptr, ptr %7, align 8, !tbaa !43
  %9 = getelementptr inbounds nuw i8, ptr %8, i64 24
  %10 = load ptr, ptr %9, align 8
  %11 = invoke noundef i64 %10(ptr noundef nonnull align 8 dereferenceable(8) %7, ptr noundef nonnull align 8 dereferenceable(32) %1, ptr noundef nonnull %3)
          to label %12 unwind label %16

12:                                               ; preds = %2
  %13 = icmp eq i64 %11, -1
  br i1 %13, label %14, label %24

14:                                               ; preds = %12
  %15 = load ptr, ptr %3, align 8, !tbaa !51
  invoke void (ptr, ...) @_Z5ErrorPKcz(ptr noundef nonnull @.str, ptr noundef %15)
          to label %24 unwind label %16

16:                                               ; preds = %14, %2
  %17 = landingpad { ptr, i32 }
          cleanup
  %18 = load ptr, ptr %3, align 8, !tbaa !51
  %19 = icmp eq ptr %18, %4
  br i1 %19, label %_ZNKSt7__cxx1112basic_stringIcSt11char_traitsIcESaIcEE11_M_is_localEv.exit.thread.i.i, label %_ZNKSt7__cxx1112basic_stringIcSt11char_traitsIcESaIcEE11_M_is_localEv.exit.i.i

_ZNKSt7__cxx1112basic_stringIcSt11char_traitsIcESaIcEE11_M_is_localEv.exit.thread.i.i: ; preds = %16
  %20 = load i64, ptr %5, align 8, !tbaa !48
  %21 = icmp ult i64 %20, 16
  call void @llvm.assume(i1 %21)
  br label %_ZNSt7__cxx1112basic_stringIcSt11char_traitsIcESaIcEED2Ev.exit

_ZNKSt7__cxx1112basic_stringIcSt11char_traitsIcESaIcEE11_M_is_localEv.exit.i.i: ; preds = %16
  %22 = load i64, ptr %4, align 8, !tbaa !50
  %23 = add i64 %22, 1
  call void @_ZdlPvm(ptr noundef %18, i64 noundef %23) #23
  br label %_ZNSt7__cxx1112basic_stringIcSt11char_traitsIcESaIcEED2Ev.exit

_ZNSt7__cxx1112basic_stringIcSt11char_traitsIcESaIcEED2Ev.exit: ; preds = %_ZNKSt7__cxx1112basic_stringIcSt11char_traitsIcESaIcEE11_M_is_localEv.exit.thread.i.i, %_ZNKSt7__cxx1112basic_stringIcSt11char_traitsIcESaIcEE11_M_is_localEv.exit.i.i
  call void @llvm.lifetime.end.p0(i64 32, ptr nonnull %3) #22
  resume { ptr, i32 } %17

24:                                               ; preds = %14, %12
  %25 = load ptr, ptr %3, align 8, !tbaa !51
  %26 = icmp eq ptr %25, %4
  br i1 %26, label %_ZNKSt7__cxx1112basic_stringIcSt11char_traitsIcESaIcEE11_M_is_localEv.exit.thread.i.i6, label %_ZNKSt7__cxx1112basic_stringIcSt11char_traitsIcESaIcEE11_M_is_localEv.exit.i.i5

_ZNKSt7__cxx1112basic_stringIcSt11char_traitsIcESaIcEE11_M_is_localEv.exit.thread.i.i6: ; preds = %24
  %27 = load i64, ptr %5, align 8, !tbaa !48
  %28 = icmp ult i64 %27, 16
  call void @llvm.assume(i1 %28)
  br label %_ZNSt7__cxx1112basic_stringIcSt11char_traitsIcESaIcEED2Ev.exit7

_ZNKSt7__cxx1112basic_stringIcSt11char_traitsIcESaIcEE11_M_is_localEv.exit.i.i5: ; preds = %24
  %29 = load i64, ptr %4, align 8, !tbaa !50
  %30 = add i64 %29, 1
  call void @_ZdlPvm(ptr noundef %25, i64 noundef %30) #23
  br label %_ZNSt7__cxx1112basic_stringIcSt11char_traitsIcESaIcEED2Ev.exit7

_ZNSt7__cxx1112basic_stringIcSt11char_traitsIcESaIcEED2Ev.exit7: ; preds = %_ZNKSt7__cxx1112basic_stringIcSt11char_traitsIcESaIcEE11_M_is_localEv.exit.thread.i.i6, %_ZNKSt7__cxx1112basic_stringIcSt11char_traitsIcESaIcEE11_M_is_localEv.exit.i.i5
  %31 = icmp sgt i64 %11, 0
  call void @llvm.lifetime.end.p0(i64 32, ptr nonnull %3) #22
  ret i1 %31
}